target datalayout = "e-m:e-p270:32:32-p271:32:32-p272:64:64-i64:64-i128:128-f80:128-n8:16:32:64-S128"
target triple = "x86_64-pc-linux-gnu"

%"class.datalog::dl_decl_plugin" = type { %class.decl_plugin.base, %class.symbol, %class.symbol, %class.symbol, %class.symbol, %class.symbol, %class.symbol, %class.symbol, %class.symbol, %class.symbol, %class.symbol, %class.symbol, %class.symbol, %class.symbol, %class.symbol, %class.symbol, %class.symbol, %class.symbol }
%class.decl_plugin.base = type <{ ptr, ptr, i32 }>
%class.symbol = type { ptr }
%class.decl_plugin = type <{ ptr, ptr, i32, [4 x i8] }>
%class.decl_info.base = type <{ i32, i32, %class.vector.39, i8 }>
%class.vector.39 = type { ptr }
%class.ptr_vector.40 = type { %class.vector.41 }
%class.vector.41 = type { ptr }
%struct.func_decl_info = type <{ %class.decl_info.base, i16, [5 x i8] }>
%class.decl_info = type <{ i32, i32, %class.vector.39, i8, [7 x i8] }>

; Function Attrs: mustprogress nounwind uwtable
define linkonce_odr hidden noundef zeroext i1 @_ZNK14func_decl_info9is_skolemEv(ptr noundef nonnull align 8 dereferenceable(19) %0) #9 comdat align 2 {
  %2 = alloca ptr, align 8
  store ptr %0, ptr %2, align 8, !tbaa !140
  %3 = load ptr, ptr %2, align 8
  %4 = getelementptr inbounds nuw %struct.func_decl_info, ptr %3, i32 0, i32 1
  %5 = load i16, ptr %4, align 1
  %6 = lshr i16 %5, 8
  %7 = and i16 %6, 1
  %8 = trunc i16 %7 to i1
  ret i1 %8
}

; Function Attrs: mustprogress nounwind uwtable
define linkonce_odr hidden noundef zeroext i1 @_ZNK14func_decl_info13is_idempotentEv(ptr noundef nonnull align 8 dereferenceable(19) %0) #9 comdat align 2 {
  %2 = alloca ptr, align 8
  store ptr %0, ptr %2, align 8, !tbaa !140
  %3 = load ptr, ptr %2, align 8
  %4 = getelementptr inbounds nuw %struct.func_decl_info, ptr %3, i32 0, i32 1
  %5 = load i16, ptr %4, align 1
  %6 = lshr i16 %5, 7
  %7 = and i16 %6, 1
  %8 = trunc i16 %7 to i1
  ret i1 %8
}

; Function Attrs: mustprogress nounwind uwtable
define linkonce_odr hidden noundef zeroext i1 @_ZNK14func_decl_info12is_injectiveEv(ptr noundef nonnull align 8 dereferenceable(19) %0) #9 comdat align 2 {
  %2 = alloca ptr, align 8
  store ptr %0, ptr %2, align 8, !tbaa !140
  %3 = load ptr, ptr %2, align 8
  %4 = getelementptr inbounds nuw %struct.func_decl_info, ptr %3, i32 0, i32 1
  %5 = load i16, ptr %4, align 1
  %6 = lshr i16 %5, 6
  %7 = and i16 %6, 1
  %8 = trunc i16 %7 to i1
  ret i1 %8
}

; Function Attrs: mustprogress nounwind uwtable
define linkonce_odr hidden noundef zeroext i1 @_ZNK14func_decl_info11is_pairwiseEv(ptr noundef nonnull align 8 dereferenceable(19) %0) #9 comdat align 2 {
  %2 = alloca ptr, align 8
  store ptr %0, ptr %2, align 8, !tbaa !140
  %3 = load ptr, ptr %2, align 8
  %4 = getelementptr inbounds nuw %struct.func_decl_info, ptr %3, i32 0, i32 1
  %5 = load i16, ptr %4, align 1
  %6 = lshr i16 %5, 5
  %7 = and i16 %6, 1
  %8 = trunc i16 %7 to i1
  ret i1 %8
}

; Function Attrs: mustprogress nounwind uwtable
define linkonce_odr hidden noundef zeroext i1 @_ZNK14func_decl_info12is_chainableEv(ptr noundef nonnull align 8 dereferenceable(19) %0) #9 comdat align 2 {
  %2 = alloca ptr, align 8
  store ptr %0, ptr %2, align 8, !tbaa !140
  %3 = load ptr, ptr %2, align 8
  %4 = getelementptr inbounds nuw %struct.func_decl_info, ptr %3, i32 0, i32 1
  %5 = load i16, ptr %4, align 1
  %6 = lshr i16 %5, 4
  %7 = and i16 %6, 1
  %8 = trunc i16 %7 to i1
  ret i1 %8
}

; Function Attrs: mustprogress nounwind uwtable
define linkonce_odr hidden noundef zeroext i1 @_ZNK14func_decl_info14is_commutativeEv(ptr noundef nonnull align 8 dereferenceable(19) %0) #9 comdat align 2 {
  %2 = alloca ptr, align 8
  store ptr %0, ptr %2, align 8, !tbaa !140
  %3 = load ptr, ptr %2, align 8
  %4 = getelementptr inbounds nuw %struct.func_decl_info, ptr %3, i32 0, i32 1
  %5 = load i16, ptr %4, align 1
  %6 = lshr i16 %5, 3
  %7 = and i16 %6, 1
  %8 = trunc i16 %7 to i1
  ret i1 %8
}

; Function Attrs: mustprogress nounwind uwtable
define linkonce_odr hidden noundef zeroext i1 @_ZNK14func_decl_info20is_right_associativeEv(ptr noundef nonnull align 8 dereferenceable(19) %0) #9 comdat align 2 {
  %2 = alloca ptr, align 8
  store ptr %0, ptr %2, align 8, !tbaa !140
  %3 = load ptr, ptr %2, align 8
  %4 = getelementptr inbounds nuw %struct.func_decl_info, ptr %3, i32 0, i32 1
  %5 = load i16, ptr %4, align 1
  %6 = lshr i16 %5, 1
  %7 = and i16 %6, 1
  %8 = trunc i16 %7 to i1
  ret i1 %8
}

; Function Attrs: mustprogress nounwind uwtable
define linkonce_odr hidden noundef zeroext i1 @_ZNK14func_decl_info19is_left_associativeEv(ptr noundef nonnull align 8 dereferenceable(19) %0) #9 comdat align 2 {
  %2 = alloca ptr, align 8
  store ptr %0, ptr %2, align 8, !tbaa !140
  %3 = load ptr, ptr %2, align 8
  %4 = getelementptr inbounds nuw %struct.func_decl_info, ptr %3, i32 0, i32 1
  %5 = load i16, ptr %4, align 1
  %6 = and i16 %5, 1
  %7 = trunc i16 %6 to i1
  ret i1 %7
}

; Function Attrs: mustprogress nounwind uwtable
define linkonce_odr hidden noundef i32 @_ZNK9decl_info13get_family_idEv(ptr noundef nonnull align 8 dereferenceable(17) %0) #9 comdat align 2 {
  %2 = alloca ptr, align 8
  store ptr %0, ptr %2, align 8, !tbaa !142
  %3 = load ptr, ptr %2, align 8
  %4 = getelementptr inbounds nuw %class.decl_info, ptr %3, i32 0, i32 0
  %5 = load i32, ptr %4, align 8, !tbaa !268
  ret i32 %5
}

; Function Attrs: mustprogress nounwind uwtable
define linkonce_odr hidden void @_ZN6vectorIP4sortLb0EjEC2Ev(ptr noundef nonnull align 8 dereferenceable(8) %0) unnamed_addr #9 comdat align 2 {
  %2 = alloca ptr, align 8
  store ptr %0, ptr %2, align 8, !tbaa !61
  %3 = load ptr, ptr %2, align 8
  %4 = getelementptr inbounds nuw %class.vector.41, ptr %3, i32 0, i32 0
  store ptr null, ptr %4, align 8, !tbaa !73
  ret void
}

; Function Attrs: mustprogress uwtable
define linkonce_odr hidden noundef zeroext i1 @_ZNK14func_decl_info7is_nullEv(ptr noundef nonnull align 8 dereferenceable(19) %0) #4 comdat align 2 {
  %2 = alloca ptr, align 8
  store ptr %0, ptr %2, align 8, !tbaa !140
  %3 = load ptr, ptr %2, align 8
  %4 = call noundef i32 @_ZNK9decl_info13get_family_idEv(ptr noundef nonnull align 8 dereferenceable(17) %3)
  %5 = icmp eq i32 %4, -1
  br i1 %5, label %6, label %23

6:                                                ; preds = %1
  %7 = call noundef zeroext i1 @_ZNK14func_decl_info19is_left_associativeEv(ptr noundef nonnull align 8 dereferenceable(19) %3)
  br i1 %7, label %23, label %8

8:                                                ; preds = %6
  %9 = call noundef zeroext i1 @_ZNK14func_decl_info20is_right_associativeEv(ptr noundef nonnull align 8 dereferenceable(19) %3)
  br i1 %9, label %23, label %10

10:                                               ; preds = %8
  %11 = call noundef zeroext i1 @_ZNK14func_decl_info14is_commutativeEv(ptr noundef nonnull align 8 dereferenceable(19) %3)
  br i1 %11, label %23, label %12

12:                                               ; preds = %10
  %13 = call noundef zeroext i1 @_ZNK14func_decl_info12is_chainableEv(ptr noundef nonnull align 8 dereferenceable(19) %3)
  br i1 %13, label %23, label %14

14:                                               ; preds = %12
  %15 = call noundef zeroext i1 @_ZNK14func_decl_info11is_pairwiseEv(ptr noundef nonnull align 8 dereferenceable(19) %3)
  br i1 %15, label %23, label %16

16:                                               ; preds = %14
  %17 = call noundef zeroext i1 @_ZNK14func_decl_info12is_injectiveEv(ptr noundef nonnull align 8 dereferenceable(19) %3)
  br i1 %17, label %23, label %18

18:                                               ; preds = %16
  %19 = call noundef zeroext i1 @_ZNK14func_decl_info13is_idempotentEv(ptr noundef nonnull align 8 dereferenceable(19) %3)
  br i1 %19, label %23, label %20

20:                                               ; preds = %18
  %21 = call noundef zeroext i1 @_ZNK14func_decl_info9is_skolemEv(ptr noundef nonnull align 8 dereferenceable(19) %3)
  %22 = xor i1 %21, true
  br label %23

23:                                               ; preds = %20, %18, %16, %14, %12, %10, %8, %6, %1
  %24 = phi i1 [ false, %18 ], [ false, %16 ], [ false, %14 ], [ false, %12 ], [ false, %10 ], [ false, %8 ], [ false, %6 ], [ false, %1 ], [ %22, %20 ]
  ret i1 %24
}

; Function Attrs: mustprogress nounwind uwtable
define linkonce_odr hidden void @_ZN10ptr_vectorI4sortEC2Ev(ptr noundef nonnull align 8 dereferenceable(8) %0) unnamed_addr #9 comdat align 2 {
  %2 = alloca ptr, align 8
  store ptr %0, ptr %2, align 8, !tbaa !58
  %3 = load ptr, ptr %2, align 8
  call void @_ZN6vectorIP4sortLb0EjEC2Ev(ptr noundef nonnull align 8 dereferenceable(8) %3) #3
  ret void
}

; Function Attrs: mustprogress uwtable
define linkonce_odr hidden noundef ptr @_ZN11ast_manager12mk_func_declERK6symboljPKP4sortS4_RK14func_decl_info(ptr noundef nonnull align 8 dereferenceable(976) %0, ptr noundef nonnull align 8 dereferenceable(8) %1, i32 noundef %2, ptr noundef %3, ptr noundef %4, ptr noundef nonnull align 8 dereferenceable(19) %5) #4 comdat align 2 {
  %7 = alloca ptr, align 8
  %8 = alloca ptr, align 8
  %9 = alloca ptr, align 8
  %10 = alloca i32, align 4
  %11 = alloca ptr, align 8
  %12 = alloca ptr, align 8
  %13 = alloca ptr, align 8
  store ptr %0, ptr %8, align 8, !tbaa !54
  store ptr %1, ptr %9, align 8, !tbaa !55
  store i32 %2, ptr %10, align 4, !tbaa !19
  store ptr %3, ptr %11, align 8, !tbaa !70
  store ptr %4, ptr %12, align 8, !tbaa !32
  store ptr %5, ptr %13, align 8, !tbaa !140
  %14 = load ptr, ptr %8, align 8
  %15 = load ptr, ptr %13, align 8, !tbaa !140
  %16 = call noundef zeroext i1 @_ZNK14func_decl_info7is_nullEv(ptr noundef nonnull align 8 dereferenceable(19) %15)
  br i1 %16, label %17, label %23

17:                                               ; preds = %6
  %18 = load ptr, ptr %9, align 8, !tbaa !55
  %19 = load i32, ptr %10, align 4, !tbaa !19
  %20 = load ptr, ptr %11, align 8, !tbaa !70
  %21 = load ptr, ptr %12, align 8, !tbaa !32
  %22 = call noundef ptr @_ZN11ast_manager12mk_func_declERK6symboljPKP4sortS4_P14func_decl_info(ptr noundef nonnull align 8 dereferenceable(976) %14, ptr noundef nonnull align 8 dereferenceable(8) %18, i32 noundef %19, ptr noundef %20, ptr noundef %21, ptr noundef null)
  store ptr %22, ptr %7, align 8
  br label %30

23:                                               ; preds = %6
  %24 = load ptr, ptr %9, align 8, !tbaa !55
  %25 = load i32, ptr %10, align 4, !tbaa !19
  %26 = load ptr, ptr %11, align 8, !tbaa !70
  %27 = load ptr, ptr %12, align 8, !tbaa !32
  %28 = load ptr, ptr %13, align 8, !tbaa !140
  %29 = call noundef ptr @_ZN11ast_manager12mk_func_declERK6symboljPKP4sortS4_P14func_decl_info(ptr noundef nonnull align 8 dereferenceable(976) %14, ptr noundef nonnull align 8 dereferenceable(8) %24, i32 noundef %25, ptr noundef %26, ptr noundef %27, ptr noundef %28)
  store ptr %29, ptr %7, align 8
  br label %30

30:                                               ; preds = %23, %17
  %31 = load ptr, ptr %7, align 8
  ret ptr %31
}

; Function Attrs: mustprogress uwtable
define hidden noundef zeroext i1 @_ZN7datalog14dl_decl_plugin11is_rel_sortEP4sort(ptr noundef nonnull align 8 dereferenceable(160) %0, ptr noundef %1) #4 align 2 personality ptr @__gxx_personality_v0 {
  %3 = alloca ptr, align 8
  %4 = alloca ptr, align 8
  %5 = alloca %class.ptr_vector.40, align 8
  %6 = alloca ptr, align 8
  %7 = alloca i32, align 4
  store ptr %0, ptr %3, align 8, !tbaa !3
  store ptr %1, ptr %4, align 8, !tbaa !32
  %8 = load ptr, ptr %3, align 8
  call void @llvm.lifetime.start.p0(i64 8, ptr %5) #3
  call void @_ZN10ptr_vectorI4sortEC2Ev(ptr noundef nonnull align 8 dereferenceable(8) %5) #3
  %9 = load ptr, ptr %4, align 8, !tbaa !32
  %10 = invoke noundef zeroext i1 @_ZN7datalog14dl_decl_plugin11is_rel_sortEP4sortR10ptr_vectorIS1_E(ptr noundef nonnull align 8 dereferenceable(160) %8, ptr noundef %9, ptr noundef nonnull align 8 dereferenceable(8) %5)
          to label %11 unwind label %12

11:                                               ; preds = %2
  call void @_ZN6vectorIP4sortLb0EjED2Ev(ptr noundef nonnull align 8 dereferenceable(8) %5) #3
  call void @llvm.lifetime.end.p0(i64 8, ptr %5) #3
  ret i1 %10

12:                                               ; preds = %2
  %13 = landingpad { ptr, i32 }
          cleanup
  %14 = extractvalue { ptr, i32 } %13, 0
  store ptr %14, ptr %6, align 8
  %15 = extractvalue { ptr, i32 } %13, 1
  store i32 %15, ptr %7, align 4
  call void @_ZN6vectorIP4sortLb0EjED2Ev(ptr noundef nonnull align 8 dereferenceable(8) %5) #3
  call void @llvm.lifetime.end.p0(i64 8, ptr %5) #3
  br label %16

16:                                               ; preds = %12
  %17 = load ptr, ptr %6, align 8
  %18 = load i32, ptr %7, align 4
  %19 = insertvalue { ptr, i32 } poison, ptr %17, 0
  %20 = insertvalue { ptr, i32 } %19, i32 %18, 1
  resume { ptr, i32 } %20
}

; Function Attrs: mustprogress uwtable
define hidden noundef ptr @_ZN7datalog14dl_decl_plugin13mk_complementEP4sort(ptr noundef nonnull align 8 dereferenceable(160) %0, ptr noundef %1) #4 align 2 personality ptr @__gxx_personality_v0 {
  %3 = alloca ptr, align 8
  %4 = alloca ptr, align 8
  %5 = alloca ptr, align 8
  %6 = alloca %struct.func_decl_info, align 8
  %7 = alloca ptr, align 8
  %8 = alloca i32, align 4
  store ptr %0, ptr %4, align 8, !tbaa !3
  store ptr %1, ptr %5, align 8, !tbaa !32
  %9 = load ptr, ptr %4, align 8
  %10 = load ptr, ptr %5, align 8, !tbaa !32
  %11 = call noundef zeroext i1 @_ZN7datalog14dl_decl_plugin11is_rel_sortEP4sort(ptr noundef nonnull align 8 dereferenceable(160) %9, ptr noundef %10)
  br i1 %11, label %13, label %12

12:                                               ; preds = %2
  store ptr null, ptr %3, align 8
  br label %26

13:                                               ; preds = %2
  call void @llvm.lifetime.start.p0(i64 24, ptr %6) #3
  %14 = getelementptr inbounds nuw %class.decl_plugin, ptr %9, i32 0, i32 2
  %15 = load i32, ptr %14, align 8, !tbaa !16
  call void @_ZN14func_decl_infoC1EiijPK9parameter(ptr noundef nonnull align 8 dereferenceable(19) %6, i32 noundef %15, i32 noundef 10, i32 noundef 0, ptr noundef null)
  %16 = getelementptr inbounds nuw %class.decl_plugin, ptr %9, i32 0, i32 1
  %17 = load ptr, ptr %16, align 8, !tbaa !12
  %18 = getelementptr inbounds nuw %"class.datalog::dl_decl_plugin", ptr %9, i32 0, i32 11
  %19 = load ptr, ptr %5, align 8, !tbaa !32
  %20 = invoke noundef ptr @_ZN11ast_manager12mk_func_declERK6symboljPKP4sortS4_RK14func_decl_info(ptr noundef nonnull align 8 dereferenceable(976) %17, ptr noundef nonnull align 8 dereferenceable(8) %18, i32 noundef 1, ptr noundef %5, ptr noundef %19, ptr noundef nonnull align 8 dereferenceable(19) %6)
          to label %21 unwind label %22

21:                                               ; preds = %13
  store ptr %20, ptr %3, align 8
  call void @_ZN9decl_infoD2Ev(ptr noundef nonnull align 8 dereferenceable(19) %6) #3
  call void @llvm.lifetime.end.p0(i64 24, ptr %6) #3
  br label %26

22:                                               ; preds = %13
  %23 = landingpad { ptr, i32 }
          cleanup
  %24 = extractvalue { ptr, i32 } %23, 0
  store ptr %24, ptr %7, align 8
  %25 = extractvalue { ptr, i32 } %23, 1
  store i32 %25, ptr %8, align 4
  call void @_ZN9decl_infoD2Ev(ptr noundef nonnull align 8 dereferenceable(19) %6) #3
  call void @llvm.lifetime.end.p0(i64 24, ptr %6) #3
  br label %28

26:                                               ; preds = %21, %12
  %27 = load ptr, ptr %3, align 8
  ret ptr %27

28:                                               ; preds = %22
  %29 = load ptr, ptr %7, align 8
  %30 = load i32, ptr %8, align 4
  %31 = insertvalue { ptr, i32 } poison, ptr %29, 0
  %32 = insertvalue { ptr, i32 } %31, i32 %30, 1
  resume { ptr, i32 } %32
}